target datalayout = "e-m:e-p270:32:32-p271:32:32-p272:64:64-i64:64-i128:128-f80:128-n8:16:32:64-S128"
target triple = "x86_64-pc-linux-gnu"

%struct.AVBitStreamFilter = type { ptr, ptr, ptr }
%union.anon = type { i64 }
%struct.AVBSFContext = type { ptr, ptr, ptr, ptr, ptr, %struct.AVRational, %struct.AVRational }
%struct.AVRational = type { i32, i32 }
%struct.AVCodecParameters = type { i32, i32, i32, ptr, i32, ptr, i32, i32, i64, i32, i32, i32, i32, i32, i32, %struct.AVRational, %struct.AVRational, i32, i32, i32, i32, i32, i32, i32, %struct.AVChannelLayout, i32, i32, i32, i32, i32, i32 }
%struct.AVChannelLayout = type { i32, i32, %union.anon.0, ptr }
%union.anon.0 = type { i64 }
%struct.OpusBSFContext = type { ptr, i32 }

@.str = private unnamed_addr constant [14 x i8] c"opus_metadata\00", align 1
@codec_ids = internal constant [2 x i32] [i32 86076, i32 0], align 4
@ff_opus_metadata_bsf = constant { %struct.AVBitStreamFilter, i32, [4 x i8], ptr, ptr, ptr, ptr } { %struct.AVBitStreamFilter { ptr @.str, ptr @codec_ids, ptr @opus_metadata_class }, i32 16, [4 x i8] zeroinitializer, ptr @opus_metadata_init, ptr @ff_bsf_get_packet_ref, ptr null, ptr null }, align 8
@.str.1 = private unnamed_addr constant [18 x i8] c"opus_metadata_bsf\00", align 1
@opus_metadata_class = internal constant { ptr, ptr, ptr, i32, i32, i32, i32, ptr, ptr, ptr, ptr, i32, [4 x i8] } { ptr @.str.1, ptr @av_default_item_name, ptr @opus_metadata_options, i32 3932772, i32 0, i32 0, i32 0, ptr null, ptr null, ptr null, ptr null, i32 0, [4 x i8] zeroinitializer }, align 8
@.str.3 = private unnamed_addr constant [5 x i8] c"gain\00", align 1
@.str.4 = private unnamed_addr constant [55 x i8] c"Gain, actual amplification is pow(10, gain/(20.0*256))\00", align 1
@opus_metadata_options = internal constant [2 x { ptr, ptr, i32, i32, %union.anon, double, double, i32, [4 x i8], ptr }] [{ ptr, ptr, i32, i32, %union.anon, double, double, i32, [4 x i8], ptr } { ptr @.str.3, ptr @.str.4, i32 8, i32 2, %union.anon zeroinitializer, double -3.276800e+04, double 3.276700e+04, i32 264, [4 x i8] zeroinitializer, ptr null }, { ptr, ptr, i32, i32, %union.anon, double, double, i32, [4 x i8], ptr } zeroinitializer], align 16

; Function Attrs: nounwind uwtable
define internal i32 @opus_metadata_init(ptr noundef %0) #0 {
  %2 = alloca i32, align 4
  %3 = alloca ptr, align 8
  %4 = alloca ptr, align 8
  %5 = alloca i32, align 4
  store ptr %0, ptr %3, align 8, !tbaa !4
  call void @llvm.lifetime.start.p0(i64 8, ptr %4) #3
  %6 = load ptr, ptr %3, align 8, !tbaa !4
  %7 = getelementptr inbounds nuw %struct.AVBSFContext, ptr %6, i32 0, i32 2
  %8 = load ptr, ptr %7, align 8, !tbaa !9
  store ptr %8, ptr %4, align 8, !tbaa !16
  %9 = load ptr, ptr %3, align 8, !tbaa !4
  %10 = getelementptr inbounds nuw %struct.AVBSFContext, ptr %9, i32 0, i32 4
  %11 = load ptr, ptr %10, align 8, !tbaa !18
  %12 = getelementptr inbounds nuw %struct.AVCodecParameters, ptr %11, i32 0, i32 4
  %13 = load i32, ptr %12, align 8, !tbaa !19
  %14 = icmp slt i32 %13, 19
  br i1 %14, label %15, label %16

15:                                               ; preds = %1
  store i32 -1094995529, ptr %2, align 4
  store i32 1, ptr %5, align 4
  br label %27

16:                                               ; preds = %1
  %17 = load ptr, ptr %4, align 8, !tbaa !16
  %18 = getelementptr inbounds nuw %struct.OpusBSFContext, ptr %17, i32 0, i32 1
  %19 = load i32, ptr %18, align 8, !tbaa !25
  %20 = trunc i32 %19 to i16
  %21 = load ptr, ptr %3, align 8, !tbaa !4
  %22 = getelementptr inbounds nuw %struct.AVBSFContext, ptr %21, i32 0, i32 4
  %23 = load ptr, ptr %22, align 8, !tbaa !18
  %24 = getelementptr inbounds nuw %struct.AVCodecParameters, ptr %23, i32 0, i32 3
  %25 = load ptr, ptr %24, align 8, !tbaa !27
  %26 = getelementptr inbounds i8, ptr %25, i64 16
  store i16 %20, ptr %26, align 1, !tbaa !28
  store i32 0, ptr %2, align 4
  store i32 1, ptr %5, align 4
  br label %27

27:                                               ; preds = %16, %15
  call void @llvm.lifetime.end.p0(i64 8, ptr %4) #3
  %28 = load i32, ptr %2, align 4
  ret i32 %28
}

declare i32 @ff_bsf_get_packet_ref(ptr noundef, ptr noundef) #1

declare ptr @av_default_item_name(ptr noundef) #1

; Function Attrs: nocallback nofree nosync nounwind willreturn memory(argmem: readwrite)
declare void @llvm.lifetime.start.p0(i64 immarg, ptr captures(none)) #2

; Function Attrs: nocallback nofree nosync nounwind willreturn memory(argmem: readwrite)
declare void @llvm.lifetime.end.p0(i64 immarg, ptr captures(none)) #2


!llvm.module.flags = !{!0, !1, !2, !3}

!0 = !{i32 1, !"wchar_size", i32 4}
!1 = !{i32 8, !"PIC Level", i32 2}
!2 = !{i32 7, !"uwtable", i32 2}
!3 = !{i32 1, !"override-stack-alignment", i32 16}
!4 = !{!5, !5, i64 0}
!5 = !{!"p1 _ZTS12AVBSFContext", !6, i64 0}
!6 = !{!"any pointer", !7, i64 0}
!7 = !{!"omnipotent char", !8, i64 0}
!8 = !{!"Simple C/C++ TBAA"}
!9 = !{!10, !6, i64 16}
!10 = !{!"AVBSFContext", !11, i64 0, !12, i64 8, !6, i64 16, !13, i64 24, !13, i64 32, !14, i64 40, !14, i64 48}
!11 = !{!"p1 _ZTS7AVClass", !6, i64 0}
!12 = !{!"p1 _ZTS17AVBitStreamFilter", !6, i64 0}
!13 = !{!"p1 _ZTS17AVCodecParameters", !6, i64 0}
!14 = !{!"AVRational", !15, i64 0, !15, i64 4}
!15 = !{!"int", !7, i64 0}
!16 = !{!17, !17, i64 0}
!17 = !{!"p1 _ZTS14OpusBSFContext", !6, i64 0}
!18 = !{!10, !13, i64 32}
!19 = !{!20, !15, i64 24}
!20 = !{!"AVCodecParameters", !15, i64 0, !15, i64 4, !15, i64 8, !21, i64 16, !15, i64 24, !22, i64 32, !15, i64 40, !15, i64 44, !23, i64 48, !15, i64 56, !15, i64 60, !15, i64 64, !15, i64 68, !15, i64 72, !15, i64 76, !14, i64 80, !14, i64 88, !15, i64 96, !15, i64 100, !15, i64 104, !15, i64 108, !15, i64 112, !15, i64 116, !15, i64 120, !24, i64 128, !15, i64 152, !15, i64 156, !15, i64 160, !15, i64 164, !15, i64 168, !15, i64 172}
!21 = !{!"p1 omnipotent char", !6, i64 0}
!22 = !{!"p1 _ZTS16AVPacketSideData", !6, i64 0}
!23 = !{!"long", !7, i64 0}
!24 = !{!"AVChannelLayout", !15, i64 0, !15, i64 4, !7, i64 8, !6, i64 16}
!25 = !{!26, !15, i64 8}
!26 = !{!"OpusBSFContext", !11, i64 0, !15, i64 8}
!27 = !{!20, !21, i64 16}
!28 = !{!7, !7, i64 0}
