; ModuleID = 'bench/ffmpeg/original/opus_metadata.ll'
source_filename = "bench/ffmpeg/original/opus_metadata.ll"
target datalayout = "e-m:e-p270:32:32-p271:32:32-p272:64:64-i64:64-i128:128-f80:128-n8:16:32:64-S128"
target triple = "x86_64-pc-linux-gnu"

%struct.AVBitStreamFilter = type { ptr, ptr, ptr }
%union.anon = type { i64 }

@.str = private unnamed_addr constant [14 x i8] c"opus_metadata\00", align 1
@codec_ids = internal constant [2 x i32] [i32 86076, i32 0], align 4
@ff_opus_metadata_bsf = local_unnamed_addr constant { %struct.AVBitStreamFilter, i32, [4 x i8], ptr, ptr, ptr, ptr } { %struct.AVBitStreamFilter { ptr @.str, ptr @codec_ids, ptr @opus_metadata_class }, i32 16, [4 x i8] zeroinitializer, ptr @opus_metadata_init, ptr @ff_bsf_get_packet_ref, ptr null, ptr null }, align 8
@.str.1 = private unnamed_addr constant [18 x i8] c"opus_metadata_bsf\00", align 1
@opus_metadata_class = internal constant { ptr, ptr, ptr, i32, i32, i32, i32, ptr, ptr, ptr, ptr, i32, [4 x i8] } { ptr @.str.1, ptr @av_default_item_name, ptr @opus_metadata_options, i32 3932772, i32 0, i32 0, i32 0, ptr null, ptr null, ptr null, ptr null, i32 0, [4 x i8] zeroinitializer }, align 8
@.str.3 = private unnamed_addr constant [5 x i8] c"gain\00", align 1
@.str.4 = private unnamed_addr constant [55 x i8] c"Gain, actual amplification is pow(10, gain/(20.0*256))\00", align 1
@opus_metadata_options = internal constant [2 x { ptr, ptr, i32, i32, %union.anon, double, double, i32, [4 x i8], ptr }] [{ ptr, ptr, i32, i32, %union.anon, double, double, i32, [4 x i8], ptr } { ptr @.str.3, ptr @.str.4, i32 8, i32 2, %union.anon zeroinitializer, double -3.276800e+04, double 3.276700e+04, i32 264, [4 x i8] zeroinitializer, ptr null }, { ptr, ptr, i32, i32, %union.anon, double, double, i32, [4 x i8], ptr } zeroinitializer], align 16

; Function Attrs: mustprogress nofree norecurse nosync nounwind willreturn memory(readwrite, inaccessiblemem: none) uwtable
define internal range(i32 -1094995529, 1) i32 @opus_metadata_init(ptr noundef readonly captures(none) %0) #0 {
  %2 = getelementptr inbounds nuw i8, ptr %0, i64 32
  %3 = load ptr, ptr %2, align 8, !tbaa !4
  %4 = getelementptr inbounds nuw i8, ptr %3, i64 24
  %5 = load i32, ptr %4, align 8, !tbaa !14
  %6 = icmp slt i32 %5, 19
  br i1 %6, label %16, label %7

7:                                                ; preds = %1
  %8 = getelementptr inbounds nuw i8, ptr %0, i64 16
  %9 = load ptr, ptr %8, align 8, !tbaa !20
  %10 = getelementptr inbounds nuw i8, ptr %9, i64 8
  %11 = load i32, ptr %10, align 8, !tbaa !21
  %12 = trunc i32 %11 to i16
  %13 = getelementptr inbounds nuw i8, ptr %3, i64 16
  %14 = load ptr, ptr %13, align 8, !tbaa !23
  %15 = getelementptr inbounds nuw i8, ptr %14, i64 16
  store i16 %12, ptr %15, align 1, !tbaa !24
  br label %16

16:                                               ; preds = %1, %7
  %.0 = phi i32 [ 0, %7 ], [ -1094995529, %1 ]
  ret i32 %.0
}

declare i32 @ff_bsf_get_packet_ref(ptr noundef, ptr noundef) #1

declare ptr @av_default_item_name(ptr noundef) #1


!llvm.module.flags = !{!0, !1, !2, !3}

!0 = !{i32 1, !"wchar_size", i32 4}
!1 = !{i32 8, !"PIC Level", i32 2}
!2 = !{i32 7, !"uwtable", i32 2}
!3 = !{i32 1, !"override-stack-alignment", i32 16}
!4 = !{!5, !11, i64 32}
!5 = !{!"AVBSFContext", !6, i64 0, !10, i64 8, !7, i64 16, !11, i64 24, !11, i64 32, !12, i64 40, !12, i64 48}
!6 = !{!"p1 _ZTS7AVClass", !7, i64 0}
!7 = !{!"any pointer", !8, i64 0}
!8 = !{!"omnipotent char", !9, i64 0}
!9 = !{!"Simple C/C++ TBAA"}
!10 = !{!"p1 _ZTS17AVBitStreamFilter", !7, i64 0}
!11 = !{!"p1 _ZTS17AVCodecParameters", !7, i64 0}
!12 = !{!"AVRational", !13, i64 0, !13, i64 4}
!13 = !{!"int", !8, i64 0}
!14 = !{!15, !13, i64 24}
!15 = !{!"AVCodecParameters", !13, i64 0, !13, i64 4, !13, i64 8, !16, i64 16, !13, i64 24, !17, i64 32, !13, i64 40, !13, i64 44, !18, i64 48, !13, i64 56, !13, i64 60, !13, i64 64, !13, i64 68, !13, i64 72, !13, i64 76, !12, i64 80, !12, i64 88, !13, i64 96, !13, i64 100, !13, i64 104, !13, i64 108, !13, i64 112, !13, i64 116, !13, i64 120, !19, i64 128, !13, i64 152, !13, i64 156, !13, i64 160, !13, i64 164, !13, i64 168, !13, i64 172}
!16 = !{!"p1 omnipotent char", !7, i64 0}
!17 = !{!"p1 _ZTS16AVPacketSideData", !7, i64 0}
!18 = !{!"long", !8, i64 0}
!19 = !{!"AVChannelLayout", !13, i64 0, !13, i64 4, !8, i64 8, !7, i64 16}
!20 = !{!5, !7, i64 16}
!21 = !{!22, !13, i64 8}
!22 = !{!"OpusBSFContext", !6, i64 0, !13, i64 8}
!23 = !{!15, !16, i64 16}
!24 = !{!8, !8, i64 0}
